target datalayout = "e-m:e-p270:32:32-p271:32:32-p272:64:64-i64:64-i128:128-f80:128-n8:16:32:64-S128"
target triple = "x86_64-pc-linux-gnu"

%struct.packet_entry_header = type { i32, i32, i16, i16, i16, i16, i8, i8, i8, i8, i16, i16, i64, i64, i64 }
%struct.wtap = type { ptr, ptr, i8, i32, i32, ptr, ptr, ptr, i32, ptr, ptr, ptr, ptr, ptr, ptr, ptr, ptr, ptr, ptr, i32, i32, ptr, ptr, ptr, ptr }
%struct.wtap_rec = type { i32, i32, i32, %struct.nstime_t, i32, %struct.nstime_t, i8, %union.anon, ptr, i8, %struct.Buffer, %struct.Buffer }
%struct.nstime_t = type { i64, i32 }
%union.anon = type { %struct.wtap_packet_header }
%struct.wtap_packet_header = type { i32, i32, i32, i32, %union.wtap_pseudo_header }
%union.wtap_pseudo_header = type { %struct.erf_mc_phdr }
%struct.erf_mc_phdr = type { %struct.erf_phdr, [16 x %struct.erf_ehdr], %union.anon.1 }
%struct.erf_phdr = type { i64, i8, i8, i16, i16, i16 }
%struct.erf_ehdr = type { i64 }
%union.anon.1 = type { i32 }
%struct.Buffer = type { ptr, i64, i64, i64 }

@.str.15 = private unnamed_addr constant [53 x i8] c"Observer: bad record (offset to next packet %d < %d)\00", align 1
@.str.17 = private unnamed_addr constant [53 x i8] c"Observer: bad record (offset to packet data %d < %d)\00", align 1

; Function Attrs: null_pointer_is_valid sspstrong uwtable
define internal i32 @read_packet_data(ptr noundef %0, i32 noundef %1, i32 noundef %2, ptr noundef %3, ptr noundef %4, ptr noundef %5) #0 {
  %7 = alloca i32, align 4
  %8 = alloca ptr, align 8
  %9 = alloca i32, align 4
  %10 = alloca i32, align 4
  %11 = alloca ptr, align 8
  %12 = alloca ptr, align 8
  %13 = alloca ptr, align 8
  %14 = alloca i32, align 4
  %15 = alloca i32, align 4
  %16 = alloca i32, align 4
  store ptr %0, ptr %8, align 8
  store i32 %1, ptr %9, align 4
  store i32 %2, ptr %10, align 4
  store ptr %3, ptr %11, align 8
  store ptr %4, ptr %12, align 8
  store ptr %5, ptr %13, align 8
  call void @llvm.lifetime.start.p0(i64 4, ptr %14) #12
  call void @llvm.lifetime.start.p0(i64 4, ptr %15) #12
  store i32 0, ptr %15, align 4
  %17 = load i32, ptr %9, align 4
  %18 = load i32, ptr %10, align 4
  %19 = icmp slt i32 %17, %18
  br i1 %19, label %20, label %26

20:                                               ; preds = %6
  %21 = load ptr, ptr %12, align 8
  store i32 -13, ptr %21, align 4
  %22 = load i32, ptr %9, align 4
  %23 = load i32, ptr %10, align 4
  %24 = call noalias ptr (ptr, ptr, ...) @wmem_strdup_printf(ptr noundef null, ptr noundef @.str.17, i32 noundef %22, i32 noundef %23)
  %25 = load ptr, ptr %13, align 8
  store ptr %24, ptr %25, align 8
  store i32 -1, ptr %7, align 4
  store i32 1, ptr %16, align 4
  br label %63

26:                                               ; preds = %6
  %27 = load i32, ptr %9, align 4
  %28 = load i32, ptr %10, align 4
  %29 = sub i32 %27, %28
  store i32 %29, ptr %14, align 4
  %30 = load i32, ptr %14, align 4
  %31 = icmp sgt i32 %30, 0
  br i1 %31, label %32, label %43

32:                                               ; preds = %26
  %33 = load ptr, ptr %8, align 8
  %34 = load i32, ptr %14, align 4
  %35 = load ptr, ptr %12, align 8
  %36 = load ptr, ptr %13, align 8
  %37 = call zeroext i1 @wtap_read_bytes(ptr noundef %33, ptr noundef null, i32 noundef %34, ptr noundef %35, ptr noundef %36)
  br i1 %37, label %39, label %38

38:                                               ; preds = %32
  store i32 -1, ptr %7, align 4
  store i32 1, ptr %16, align 4
  br label %63

39:                                               ; preds = %32
  %40 = load i32, ptr %14, align 4
  %41 = load i32, ptr %15, align 4
  %42 = add i32 %41, %40
  store i32 %42, ptr %15, align 4
  br label %43

43:                                               ; preds = %39, %26
  %44 = load ptr, ptr %8, align 8
  %45 = load ptr, ptr %11, align 8
  %46 = getelementptr inbounds nuw %struct.wtap_rec, ptr %45, i32 0, i32 11
  %47 = load ptr, ptr %11, align 8
  %48 = getelementptr inbounds nuw %struct.wtap_rec, ptr %47, i32 0, i32 7
  %49 = getelementptr inbounds nuw %struct.wtap_packet_header, ptr %48, i32 0, i32 0
  %50 = load i32, ptr %49, align 8
  %51 = load ptr, ptr %12, align 8
  %52 = load ptr, ptr %13, align 8
  %53 = call zeroext i1 @wtap_read_bytes_buffer(ptr noundef %44, ptr noundef %46, i32 noundef %50, ptr noundef %51, ptr noundef %52)
  br i1 %53, label %55, label %54

54:                                               ; preds = %43
  store i32 0, ptr %7, align 4
  store i32 1, ptr %16, align 4
  br label %63

55:                                               ; preds = %43
  %56 = load ptr, ptr %11, align 8
  %57 = getelementptr inbounds nuw %struct.wtap_rec, ptr %56, i32 0, i32 7
  %58 = getelementptr inbounds nuw %struct.wtap_packet_header, ptr %57, i32 0, i32 0
  %59 = load i32, ptr %58, align 8
  %60 = load i32, ptr %15, align 4
  %61 = add i32 %60, %59
  store i32 %61, ptr %15, align 4
  %62 = load i32, ptr %15, align 4
  store i32 %62, ptr %7, align 4
  store i32 1, ptr %16, align 4
  br label %63

63:                                               ; preds = %55, %54, %38, %20
  call void @llvm.lifetime.end.p0(i64 4, ptr %15) #12
  call void @llvm.lifetime.end.p0(i64 4, ptr %14) #12
  %64 = load i32, ptr %7, align 4
  ret i32 %64
}

; Function Attrs: null_pointer_is_valid sspstrong uwtable
define internal zeroext i1 @skip_to_next_packet(ptr noundef %0, i32 noundef %1, i32 noundef %2, ptr noundef %3, ptr noundef %4) #0 {
  %6 = alloca i1, align 1
  %7 = alloca ptr, align 8
  %8 = alloca i32, align 4
  %9 = alloca i32, align 4
  %10 = alloca ptr, align 8
  %11 = alloca ptr, align 8
  %12 = alloca i32, align 4
  %13 = alloca i32, align 4
  store ptr %0, ptr %7, align 8
  store i32 %1, ptr %8, align 4
  store i32 %2, ptr %9, align 4
  store ptr %3, ptr %10, align 8
  store ptr %4, ptr %11, align 8
  call void @llvm.lifetime.start.p0(i64 4, ptr %12) #12
  %14 = load i32, ptr %8, align 4
  %15 = load i32, ptr %9, align 4
  %16 = icmp slt i32 %14, %15
  br i1 %16, label %17, label %23

17:                                               ; preds = %5
  %18 = load ptr, ptr %10, align 8
  store i32 -13, ptr %18, align 4
  %19 = load i32, ptr %8, align 4
  %20 = load i32, ptr %9, align 4
  %21 = call noalias ptr (ptr, ptr, ...) @wmem_strdup_printf(ptr noundef null, ptr noundef @.str.15, i32 noundef %19, i32 noundef %20)
  %22 = load ptr, ptr %11, align 8
  store ptr %21, ptr %22, align 8
  store i1 false, ptr %6, align 1
  store i32 1, ptr %13, align 4
  br label %40

23:                                               ; preds = %5
  %24 = load i32, ptr %8, align 4
  %25 = load i32, ptr %9, align 4
  %26 = sub i32 %24, %25
  store i32 %26, ptr %12, align 4
  %27 = load i32, ptr %12, align 4
  %28 = icmp sgt i32 %27, 0
  br i1 %28, label %29, label %39

29:                                               ; preds = %23
  %30 = load ptr, ptr %7, align 8
  %31 = getelementptr inbounds nuw %struct.wtap, ptr %30, i32 0, i32 0
  %32 = load ptr, ptr %31, align 8
  %33 = load i32, ptr %12, align 4
  %34 = load ptr, ptr %10, align 8
  %35 = load ptr, ptr %11, align 8
  %36 = call zeroext i1 @wtap_read_bytes(ptr noundef %32, ptr noundef null, i32 noundef %33, ptr noundef %34, ptr noundef %35)
  br i1 %36, label %38, label %37

37:                                               ; preds = %29
  store i1 false, ptr %6, align 1
  store i32 1, ptr %13, align 4
  br label %40

38:                                               ; preds = %29
  br label %39

39:                                               ; preds = %38, %23
  store i1 true, ptr %6, align 1
  store i32 1, ptr %13, align 4
  br label %40

40:                                               ; preds = %39, %37, %17
  call void @llvm.lifetime.end.p0(i64 4, ptr %12) #12
  %41 = load i1, ptr %6, align 1
  ret i1 %41
}

; Function Attrs: null_pointer_is_valid sspstrong uwtable
define internal zeroext i1 @observer_read(ptr noundef %0, ptr noundef %1, ptr noundef %2, ptr noundef %3, ptr noundef %4) #0 {
  %6 = alloca i1, align 1
  %7 = alloca ptr, align 8
  %8 = alloca ptr, align 8
  %9 = alloca ptr, align 8
  %10 = alloca ptr, align 8
  %11 = alloca ptr, align 8
  %12 = alloca i32, align 4
  %13 = alloca i32, align 4
  %14 = alloca %struct.packet_entry_header, align 8
  %15 = alloca i32, align 4
  store ptr %0, ptr %7, align 8
  store ptr %1, ptr %8, align 8
  store ptr %2, ptr %9, align 8
  store ptr %3, ptr %10, align 8
  store ptr %4, ptr %11, align 8
  call void @llvm.lifetime.start.p0(i64 4, ptr %12) #12
  call void @llvm.lifetime.start.p0(i64 4, ptr %13) #12
  call void @llvm.lifetime.start.p0(i64 48, ptr %14) #12
  br label %16

16:                                               ; preds = %51, %5
  %17 = load ptr, ptr %7, align 8
  %18 = getelementptr inbounds nuw %struct.wtap, ptr %17, i32 0, i32 0
  %19 = load ptr, ptr %18, align 8
  %20 = call i64 @file_tell(ptr noundef %19)
  %21 = load ptr, ptr %11, align 8
  store i64 %20, ptr %21, align 8
  %22 = load ptr, ptr %7, align 8
  %23 = load ptr, ptr %7, align 8
  %24 = getelementptr inbounds nuw %struct.wtap, ptr %23, i32 0, i32 0
  %25 = load ptr, ptr %24, align 8
  %26 = load ptr, ptr %8, align 8
  %27 = getelementptr inbounds nuw %struct.wtap_rec, ptr %26, i32 0, i32 7
  %28 = getelementptr inbounds nuw %struct.wtap_packet_header, ptr %27, i32 0, i32 4
  %29 = load ptr, ptr %9, align 8
  %30 = load ptr, ptr %10, align 8
  %31 = call i32 @read_packet_header(ptr noundef %22, ptr noundef %25, ptr noundef %28, ptr noundef %14, ptr noundef %29, ptr noundef %30)
  store i32 %31, ptr %12, align 4
  %32 = load i32, ptr %12, align 4
  %33 = icmp sle i32 %32, 0
  br i1 %33, label %34, label %35

34:                                               ; preds = %16
  store i1 false, ptr %6, align 1
  store i32 1, ptr %15, align 4
  br label %87

35:                                               ; preds = %16
  %36 = getelementptr inbounds nuw %struct.packet_entry_header, ptr %14, i32 0, i32 9
  %37 = load i8, ptr %36, align 1
  %38 = zext i8 %37 to i32
  %39 = icmp eq i32 %38, 0
  br i1 %39, label %40, label %41

40:                                               ; preds = %35
  br label %52

41:                                               ; preds = %35
  %42 = load ptr, ptr %7, align 8
  %43 = getelementptr inbounds nuw %struct.packet_entry_header, ptr %14, i32 0, i32 5
  %44 = load i16, ptr %43, align 2
  %45 = zext i16 %44 to i32
  %46 = load i32, ptr %12, align 4
  %47 = load ptr, ptr %9, align 8
  %48 = load ptr, ptr %10, align 8
  %49 = call zeroext i1 @skip_to_next_packet(ptr noundef %42, i32 noundef %45, i32 noundef %46, ptr noundef %47, ptr noundef %48)
  br i1 %49, label %51, label %50

50:                                               ; preds = %41
  store i1 false, ptr %6, align 1
  store i32 1, ptr %15, align 4
  br label %87

51:                                               ; preds = %41
  br label %16

52:                                               ; preds = %40
  %53 = load ptr, ptr %7, align 8
  %54 = load ptr, ptr %8, align 8
  %55 = load ptr, ptr %9, align 8
  %56 = load ptr, ptr %10, align 8
  %57 = call zeroext i1 @process_packet_header(ptr noundef %53, ptr noundef %14, ptr noundef %54, ptr noundef %55, ptr noundef %56)
  br i1 %57, label %59, label %58

58:                                               ; preds = %52
  store i1 false, ptr %6, align 1
  store i32 1, ptr %15, align 4
  br label %87

59:                                               ; preds = %52
  %60 = load ptr, ptr %7, align 8
  %61 = getelementptr inbounds nuw %struct.wtap, ptr %60, i32 0, i32 0
  %62 = load ptr, ptr %61, align 8
  %63 = getelementptr inbounds nuw %struct.packet_entry_header, ptr %14, i32 0, i32 4
  %64 = load i16, ptr %63, align 4
  %65 = zext i16 %64 to i32
  %66 = load i32, ptr %12, align 4
  %67 = load ptr, ptr %8, align 8
  %68 = load ptr, ptr %9, align 8
  %69 = load ptr, ptr %10, align 8
  %70 = call i32 @read_packet_data(ptr noundef %62, i32 noundef %65, i32 noundef %66, ptr noundef %67, ptr noundef %68, ptr noundef %69)
  store i32 %70, ptr %13, align 4
  %71 = load i32, ptr %13, align 4
  %72 = icmp slt i32 %71, 0
  br i1 %72, label %73, label %74

73:                                               ; preds = %59
  store i1 false, ptr %6, align 1
  store i32 1, ptr %15, align 4
  br label %87

74:                                               ; preds = %59
  %75 = load ptr, ptr %7, align 8
  %76 = getelementptr inbounds nuw %struct.packet_entry_header, ptr %14, i32 0, i32 5
  %77 = load i16, ptr %76, align 2
  %78 = zext i16 %77 to i32
  %79 = load i32, ptr %12, align 4
  %80 = load i32, ptr %13, align 4
  %81 = add i32 %79, %80
  %82 = load ptr, ptr %9, align 8
  %83 = load ptr, ptr %10, align 8
  %84 = call zeroext i1 @skip_to_next_packet(ptr noundef %75, i32 noundef %78, i32 noundef %81, ptr noundef %82, ptr noundef %83)
  br i1 %84, label %86, label %85

85:                                               ; preds = %74
  store i1 false, ptr %6, align 1
  store i32 1, ptr %15, align 4
  br label %87

86:                                               ; preds = %74
  store i1 true, ptr %6, align 1
  store i32 1, ptr %15, align 4
  br label %87

87:                                               ; preds = %86, %85, %73, %58, %50, %34
  call void @llvm.lifetime.end.p0(i64 48, ptr %14) #12
  call void @llvm.lifetime.end.p0(i64 4, ptr %13) #12
  call void @llvm.lifetime.end.p0(i64 4, ptr %12) #12
  %88 = load i1, ptr %6, align 1
  ret i1 %88
}