; Function Attrs: null_pointer_is_valid sspstrong uwtable
define internal noundef zeroext i1 @observer_read(ptr noundef readonly captures(none) %0, ptr noundef %1, ptr noundef %2, ptr noundef %3, ptr noundef writeonly captures(none) initializes((0, 8)) %4) #0 {
  %6 = alloca %struct.packet_entry_header, align 8
  call void @llvm.lifetime.start.p0(i64 48, ptr nonnull %6) #14
  %7 = load ptr, ptr %0, align 8
  %8 = tail call i64 @file_tell(ptr noundef %7)
  store i64 %8, ptr %4, align 8
  %9 = load ptr, ptr %0, align 8
  %10 = getelementptr inbounds nuw i8, ptr %1, i64 80
  %11 = call fastcc i32 @read_packet_header(ptr noundef %0, ptr noundef %9, ptr noundef nonnull %10, ptr noundef nonnull %6, ptr noundef %2, ptr noundef %3)
  %12 = icmp slt i32 %11, 1
  br i1 %12, label %skip_to_next_packet.exit30, label %.lr.ph

.lr.ph:                                           ; preds = %5
  %13 = getelementptr inbounds nuw i8, ptr %6, i64 19
  %14 = getelementptr inbounds nuw i8, ptr %6, i64 14
  br label %15

15:                                               ; preds = %.lr.ph, %skip_to_next_packet.exit
  %16 = phi i32 [ %11, %.lr.ph ], [ %33, %skip_to_next_packet.exit ]
  %17 = load i8, ptr %13, align 1
  %18 = icmp eq i8 %17, 0
  br i1 %18, label %35, label %19

19:                                               ; preds = %15
  %20 = load i16, ptr %14, align 2
  %21 = zext i16 %20 to i32
  %22 = icmp samesign ugt i32 %16, %21
  br i1 %22, label %23, label %25

23:                                               ; preds = %19
  store i32 -13, ptr %2, align 4
  %24 = call noalias ptr (ptr, ptr, ...) @wmem_strdup_printf(ptr noundef null, ptr noundef nonnull @.str.15, i32 noundef range(i32 0, 65536) %21, i32 noundef range(i32 1, -1) %16)
  store ptr %24, ptr %3, align 8
  br label %skip_to_next_packet.exit30

25:                                               ; preds = %19
  %.not = icmp eq i32 %16, %21
  br i1 %.not, label %skip_to_next_packet.exit, label %26

26:                                               ; preds = %25
  %27 = sub nuw nsw i32 %21, %16
  %28 = load ptr, ptr %0, align 8
  %29 = call zeroext i1 @wtap_read_bytes(ptr noundef %28, ptr noundef null, i32 noundef %27, ptr noundef %2, ptr noundef %3)
  br i1 %29, label %skip_to_next_packet.exit, label %skip_to_next_packet.exit30

skip_to_next_packet.exit:                         ; preds = %25, %26
  %30 = load ptr, ptr %0, align 8
  %31 = call i64 @file_tell(ptr noundef %30)
  store i64 %31, ptr %4, align 8
  %32 = load ptr, ptr %0, align 8
  %33 = call fastcc i32 @read_packet_header(ptr noundef %0, ptr noundef %32, ptr noundef nonnull %10, ptr noundef nonnull %6, ptr noundef %2, ptr noundef %3)
  %34 = icmp slt i32 %33, 1
  br i1 %34, label %skip_to_next_packet.exit30, label %15

35:                                               ; preds = %15
  %36 = call fastcc zeroext i1 @process_packet_header(ptr noundef %0, ptr noundef nonnull %6, ptr noundef %1, ptr noundef %2, ptr noundef %3)
  br i1 %36, label %37, label %skip_to_next_packet.exit30

37:                                               ; preds = %35
  %38 = load ptr, ptr %0, align 8
  %39 = getelementptr inbounds nuw i8, ptr %6, i64 12
  %40 = load i16, ptr %39, align 4
  %41 = zext i16 %40 to i32
  %42 = icmp samesign ugt i32 %16, %41
  br i1 %42, label %43, label %45

43:                                               ; preds = %37
  store i32 -13, ptr %2, align 4
  %44 = call noalias ptr (ptr, ptr, ...) @wmem_strdup_printf(ptr noundef null, ptr noundef nonnull @.str.17, i32 noundef range(i32 0, 65536) %41, i32 noundef range(i32 1, -2147483648) %16)
  store ptr %44, ptr %3, align 8
  br label %skip_to_next_packet.exit30

45:                                               ; preds = %37
  %46 = sub nuw nsw i32 %41, %16
  %.not.i = icmp eq i32 %16, %41
  br i1 %.not.i, label %49, label %47

47:                                               ; preds = %45
  %48 = call zeroext i1 @wtap_read_bytes(ptr noundef %38, ptr noundef null, i32 noundef %46, ptr noundef %2, ptr noundef %3)
  br i1 %48, label %49, label %skip_to_next_packet.exit30

49:                                               ; preds = %47, %45
  %50 = getelementptr inbounds nuw i8, ptr %1, i64 280
  %51 = getelementptr inbounds nuw i8, ptr %1, i64 64
  %52 = load i32, ptr %51, align 8
  %53 = call zeroext i1 @wtap_read_bytes_buffer(ptr noundef %38, ptr noundef nonnull %50, i32 noundef %52, ptr noundef %2, ptr noundef %3)
  br i1 %53, label %read_packet_data.exit, label %read_packet_data.exit.thread33

read_packet_data.exit:                            ; preds = %49
  %54 = load i32, ptr %51, align 8
  %55 = add i32 %54, %46
  %56 = icmp slt i32 %55, 0
  br i1 %56, label %skip_to_next_packet.exit30, label %read_packet_data.exit.thread33

read_packet_data.exit.thread33:                   ; preds = %49, %read_packet_data.exit
  %.023.i35 = phi i32 [ %55, %read_packet_data.exit ], [ 0, %49 ]
  %57 = load i16, ptr %14, align 2
  %58 = zext i16 %57 to i32
  %59 = add nuw i32 %.023.i35, %16
  %60 = icmp sgt i32 %59, %58
  br i1 %60, label %61, label %63

61:                                               ; preds = %read_packet_data.exit.thread33
  store i32 -13, ptr %2, align 4
  %62 = call noalias ptr (ptr, ptr, ...) @wmem_strdup_printf(ptr noundef null, ptr noundef nonnull @.str.15, i32 noundef range(i32 0, 65536) %58, i32 noundef range(i32 1, -1) %59)
  store ptr %62, ptr %3, align 8
  br label %skip_to_next_packet.exit30

63:                                               ; preds = %read_packet_data.exit.thread33
  %64 = sub i32 %58, %59
  %65 = icmp sgt i32 %64, 0
  br i1 %65, label %66, label %69

66:                                               ; preds = %63
  %67 = load ptr, ptr %0, align 8
  %68 = call zeroext i1 @wtap_read_bytes(ptr noundef %67, ptr noundef null, i32 noundef %64, ptr noundef %2, ptr noundef %3)
  br i1 %68, label %69, label %skip_to_next_packet.exit30

69:                                               ; preds = %66, %63
  br label %skip_to_next_packet.exit30

skip_to_next_packet.exit30:                       ; preds = %skip_to_next_packet.exit, %26, %5, %47, %43, %23, %69, %66, %61, %read_packet_data.exit, %35
  %.0 = phi i1 [ false, %35 ], [ false, %read_packet_data.exit ], [ false, %61 ], [ true, %69 ], [ false, %66 ], [ false, %23 ], [ false, %43 ], [ false, %47 ], [ false, %5 ], [ false, %26 ], [ false, %skip_to_next_packet.exit ]
  call void @llvm.lifetime.end.p0(i64 48, ptr nonnull %6) #14
  ret i1 %.0
}